(lp1
(lp2
I0
aI0
aI0
aI0
aa(lp3
I0
aI0
aI0
aI0
aa(lp4
I11
aI0
aI0
aI0
aa(lp5
I2
aI0
aI0
aI0
aa(lp6
I0
aI0
aI0
aI0
aa(lp7
I1
aI0
aI0
aI0
aa(lp8
I9
aI0
aI0
aI0
aa(lp9
I0
aI0
aI0
aI0
aa(lp10
I0
aI0
aI0
aI0
aa(lp11
I0
aI0
aI0
aI0
aa(lp12
I1
aI0
aI0
aI0
aa(lp13
I45
aI0
aI0
aI0
aa(lp14
I3
aI0
aI0
aI0
aa(lp15
I0
aI0
aI0
aI0
aa(lp16
I0
aI0
aI0
aI0
aa(lp17
I0
aI0
aI0
aI0
aa(lp18
I0
aI0
aI0
aI0
aa(lp19
I17
aI0
aI0
aI0
aa(lp20
I0
aI0
aI0
aI0
aa.