(lp1
(lp2
I0
aI0
aI0
aI0
aa(lp3
I5
aI0
aI0
aI0
aa(lp4
I1
aI0
aI0
aI0
aa(lp5
I0
aI0
aI0
aI0
aa(lp6
I0
aI0
aI0
aI0
aa(lp7
I0
aI0
aI0
aI0
aa(lp8
I0
aI0
aI0
aI0
aa(lp9
I12
aI0
aI0
aI0
aa(lp10
I7
aI0
aI0
aI0
aa(lp11
I2
aI0
aI0
aI0
aa(lp12
I0
aI0
aI0
aI0
aa(lp13
I0
aI0
aI0
aI0
aa(lp14
I5
aI0
aI0
aI0
aa(lp15
I5
aI0
aI0
aI0
aa(lp16
I24
aI0
aI0
aI0
aa(lp17
I1
aI0
aI0
aI0
aa(lp18
I10
aI0
aI0
aI0
aa(lp19
I1
aI0
aI0
aI0
aa(lp20
I0
aI0
aI0
aI0
aa(lp21
I8
aI0
aI0
aI0
aa(lp22
I15
aI0
aI0
aI0
aa(lp23
I0
aI0
aI0
aI0
aa.