(lp1
(lp2
I0
aI0
aI0
aI0
aa(lp3
I28
aI0
aI0
aI0
aa(lp4
I0
aI0
aI0
aI0
aa(lp5
I1
aI0
aI0
aI0
aa(lp6
I0
aI0
aI0
aI0
aa(lp7
I6
aI0
aI0
aI0
aa(lp8
I0
aI0
aI0
aI0
aa(lp9
I2
aI0
aI0
aI0
aa(lp10
I0
aI0
aI0
aI0
aa(lp11
I0
aI0
aI0
aI0
aa(lp12
I0
aI0
aI0
aI0
aa(lp13
I7
aI0
aI0
aI0
aa(lp14
I2
aI0
aI0
aI0
aa(lp15
I3
aI0
aI0
aI0
aa(lp16
I34
aI0
aI0
aI0
aa.