(lp1
(lp2
I24
aI0
aI4
aI0
aa(lp3
I41
aI0
aI7
aI0
aa(lp4
I13
aI0
aI2
aI0
aa(lp5
I0
aI0
aI0
aI0
aa(lp6
I0
aI0
aI0
aI0
aa(lp7
I30
aI0
aI6
aI0
aa(lp8
I23
aI6
aI3
aI0
aa(lp9
I0
aI0
aI0
aI0
aa(lp10
I9
aI0
aI2
aI2
aa(lp11
I0
aI0
aI0
aI0
aa(lp12
I43
aI0
aI6
aI0
aa(lp13
I31
aI0
aI4
aI0
aa(lp14
I20
aI0
aI2
aI0
aa(lp15
I0
aI0
aI0
aI0
aa(lp16
I11
aI0
aI3
aI0
aa(lp17
I0
aI0
aI0
aI0
aa(lp18
I20
aI2
aI3
aI0
aa(lp19
I25
aI0
aI3
aI0
aa(lp20
I20
aI0
aI2
aI0
aa.