(lp1
(lp2
I0
aI0
aI0
aI0
aa(lp3
I24
aI0
aI0
aI0
aa(lp4
I8
aI0
aI0
aI0
aa(lp5
I0
aI0
aI0
aI0
aa(lp6
I0
aI0
aI0
aI0
aa(lp7
I0
aI0
aI0
aI0
aa(lp8
I3
aI0
aI0
aI0
aa(lp9
I0
aI0
aI0
aI0
aa(lp10
I0
aI0
aI0
aI0
aa(lp11
I11
aI0
aI0
aI0
aa(lp12
I0
aI0
aI0
aI0
aa(lp13
I1
aI0
aI0
aI0
aa(lp14
I0
aI0
aI0
aI0
aa(lp15
I12
aI0
aI0
aI0
aa(lp16
I0
aI0
aI0
aI0
aa(lp17
I5
aI0
aI0
aI0
aa(lp18
I0
aI0
aI0
aI0
aa.