(lp1
(lp2
I0
aI0
aI0
aI0
aa(lp3
I60
aI0
aI5
aI0
aa(lp4
I3
aI0
aI1
aI0
aa(lp5
I0
aI0
aI0
aI0
aa(lp6
I0
aI0
aI0
aI0
aa(lp7
I22
aI7
aI4
aI0
aa(lp8
I63
aI14
aI9
aI0
aa(lp9
I0
aI0
aI0
aI0
aa(lp10
I20
aI0
aI3
aI0
aa(lp11
I92
aI2
aI14
aI0
aa(lp12
I4
aI0
aI1
aI0
aa(lp13
I21
aI0
aI4
aI0
aa(lp14
I0
aI0
aI0
aI0
aa(lp15
I12
aI0
aI2
aI0
aa(lp16
I17
aI0
aI3
aI0
aa(lp17
I23
aI0
aI1
aI0
aa(lp18
I0
aI0
aI0
aI0
aa.