(lp1
(lp2
I16
aI0
aI2
aI0
aa(lp3
I47
aI2
aI5
aI0
aa(lp4
I0
aI0
aI0
aI0
aa(lp5
I105
aI0
aI19
aI0
aa(lp6
I6
aI0
aI1
aI0
aa(lp7
I14
aI1
aI2
aI0
aa(lp8
I107
aI9
aI17
aI0
aa(lp9
I0
aI0
aI0
aI0
aa(lp10
I13
aI0
aI2
aI0
aa(lp11
I0
aI0
aI0
aI0
aa(lp12
I4
aI0
aI1
aI0
aa.