(lp1
(lp2
I0
aI0
aI0
aI0
aa(lp3
I0
aI0
aI0
aI0
aa(lp4
I18
aI0
aI0
aI0
aa(lp5
I7
aI0
aI0
aI0
aa(lp6
I3
aI0
aI0
aI0
aa(lp7
I0
aI0
aI0
aI0
aa(lp8
I3
aI0
aI0
aI0
aa(lp9
I0
aI0
aI0
aI0
aa(lp10
I0
aI0
aI0
aI0
aa(lp11
I22
aI0
aI0
aI0
aa(lp12
I0
aI0
aI0
aI0
aa(lp13
I2
aI0
aI0
aI0
aa(lp14
I0
aI0
aI0
aI0
aa(lp15
I0
aI0
aI0
aI0
aa(lp16
I0
aI0
aI0
aI0
aa(lp17
I1
aI0
aI0
aI0
aa(lp18
I1
aI0
aI0
aI0
aa(lp19
I0
aI0
aI0
aI0
aa(lp20
I0
aI0
aI0
aI0
aa(lp21
I4
aI0
aI0
aI0
aa(lp22
I11
aI0
aI0
aI0
aa(lp23
I3
aI0
aI0
aI0
aa(lp24
I2
aI0
aI0
aI0
aa(lp25
I0
aI0
aI0
aI0
aa(lp26
I13
aI0
aI0
aI0
aa(lp27
I2
aI0
aI0
aI0
aa(lp28
I6
aI0
aI0
aI0
aa(lp29
I2
aI0
aI0
aI0
aa(lp30
I0
aI0
aI0
aI0
aa(lp31
I0
aI0
aI0
aI0
aa.