(lp1
(lp2
I22
aI4
aI4
aI0
aa(lp3
I41
aI0
aI7
aI0
aa(lp4
I20
aI5
aI3
aI0
aa(lp5
I1
aI0
aI0
aI0
aa(lp6
I0
aI0
aI0
aI0
aa(lp7
I30
aI0
aI6
aI0
aa(lp8
I25
aI4
aI4
aI0
aa(lp9
I9
aI0
aI3
aI0
aa(lp10
I10
aI0
aI2
aI2
aa(lp11
I0
aI0
aI0
aI0
aa(lp12
I40
aI8
aI5
aI0
aa(lp13
I29
aI2
aI4
aI0
aa(lp14
I35
aI13
aI4
aI0
aa(lp15
I7
aI0
aI1
aI0
aa(lp16
I11
aI0
aI3
aI0
aa(lp17
I0
aI0
aI0
aI0
aa(lp18
I27
aI6
aI4
aI0
aa(lp19
I23
aI1
aI3
aI0
aa(lp20
I20
aI7
aI2
aI0
aa.