(lp1
(lp2
I0
aI0
aI0
aI0
aa(lp3
I59
aI4
aI4
aI0
aa(lp4
I3
aI0
aI1
aI0
aa(lp5
I0
aI0
aI0
aI0
aa(lp6
I0
aI0
aI0
aI0
aa(lp7
I24
aI7
aI5
aI0
aa(lp8
I62
aI23
aI9
aI0
aa(lp9
I0
aI0
aI0
aI0
aa(lp10
I20
aI4
aI3
aI0
aa(lp11
I93
aI25
aI14
aI0
aa(lp12
I4
aI0
aI1
aI0
aa(lp13
I21
aI0
aI4
aI0
aa(lp14
I0
aI0
aI0
aI0
aa(lp15
I11
aI2
aI2
aI0
aa(lp16
I18
aI2
aI3
aI0
aa(lp17
I23
aI2
aI1
aI0
aa(lp18
I0
aI0
aI0
aI0
aa.